target datalayout = "e-m:e-p270:32:32-p271:32:32-p272:64:64-i64:64-i128:128-f80:128-n8:16:32:64-S128"
target triple = "x86_64-pc-linux-gnu"

%struct._address = type { i32, i32, ptr, ptr }

@.str = private unnamed_addr constant [19 x i8] c"[Buffer too small]\00", align 1

; Function Attrs: null_pointer_is_valid sspstrong uwtable
define internal i32 @ipx_to_str(ptr noundef %0, ptr noundef %1, i32 noundef %2) #3 {
  %4 = alloca i32, align 4
  %5 = alloca ptr, align 8
  %6 = alloca ptr, align 8
  %7 = alloca i32, align 4
  %8 = alloca ptr, align 8
  %9 = alloca ptr, align 8
  store ptr %0, ptr %5, align 8
  store ptr %1, ptr %6, align 8
  store i32 %2, ptr %7, align 4
  br label %10

10:                                               ; preds = %3
  %11 = load i32, ptr %7, align 4
  %12 = icmp sgt i32 22, %11
  br i1 %12, label %13, label %19

13:                                               ; preds = %10
  %14 = load ptr, ptr %6, align 8
  %15 = load i32, ptr %7, align 4
  %16 = sext i32 %15 to i64
  %17 = call i64 @g_strlcpy(ptr noundef %14, ptr noundef @.str, i64 noundef %16)
  %18 = load i32, ptr %7, align 4
  store i32 %18, ptr %4, align 4
  br label %43

19:                                               ; preds = %10
  br label %20

20:                                               ; preds = %19
  call void @llvm.lifetime.start.p0(i64 8, ptr %8) #12
  %21 = load ptr, ptr %5, align 8
  %22 = getelementptr inbounds nuw %struct._address, ptr %21, i32 0, i32 2
  %23 = load ptr, ptr %22, align 8
  store ptr %23, ptr %8, align 8
  call void @llvm.lifetime.start.p0(i64 8, ptr %9) #12
  %24 = load ptr, ptr %6, align 8
  store ptr %24, ptr %9, align 8
  %25 = load ptr, ptr %9, align 8
  %26 = load ptr, ptr %8, align 8
  %27 = getelementptr i8, ptr %26, i64 0
  %28 = call ptr @bytes_to_hexstr(ptr noundef %25, ptr noundef %27, i64 noundef 4)
  store ptr %28, ptr %9, align 8
  %29 = load ptr, ptr %9, align 8
  %30 = getelementptr i8, ptr %29, i32 1
  store ptr %30, ptr %9, align 8
  store i8 46, ptr %29, align 1
  %31 = load ptr, ptr %9, align 8
  %32 = load ptr, ptr %8, align 8
  %33 = getelementptr i8, ptr %32, i64 4
  %34 = call ptr @bytes_to_hexstr(ptr noundef %31, ptr noundef %33, i64 noundef 6)
  store ptr %34, ptr %9, align 8
  %35 = load ptr, ptr %9, align 8
  %36 = getelementptr i8, ptr %35, i32 1
  store ptr %36, ptr %9, align 8
  store i8 0, ptr %35, align 1
  %37 = load ptr, ptr %9, align 8
  %38 = load ptr, ptr %6, align 8
  %39 = ptrtoint ptr %37 to i64
  %40 = ptrtoint ptr %38 to i64
  %41 = sub i64 %39, %40
  %42 = trunc i64 %41 to i32
  store i32 %42, ptr %4, align 4
  call void @llvm.lifetime.end.p0(i64 8, ptr %9) #12
  call void @llvm.lifetime.end.p0(i64 8, ptr %8) #12
  br label %43

43:                                               ; preds = %20, %13
  %44 = load i32, ptr %4, align 4
  ret i32 %44
}