; Function Attrs: null_pointer_is_valid sspstrong uwtable
define internal noundef i32 @ipx_to_str(ptr noundef readonly captures(none) %0, ptr noundef %1, i32 noundef %2) #6 {
  %4 = icmp slt i32 %2, 22
  br i1 %4, label %5, label %8

5:                                                ; preds = %3
  %6 = sext i32 %2 to i64
  %7 = tail call i64 @g_strlcpy(ptr noundef %1, ptr noundef nonnull @.str, i64 noundef %6)
  br label %20

8:                                                ; preds = %3
  %9 = getelementptr inbounds nuw i8, ptr %0, i64 8
  %10 = load ptr, ptr %9, align 8
  %11 = tail call ptr @bytes_to_hexstr(ptr noundef %1, ptr noundef %10, i64 noundef 4)
  %12 = getelementptr i8, ptr %11, i64 1
  store i8 46, ptr %11, align 1
  %13 = getelementptr i8, ptr %10, i64 4
  %14 = tail call ptr @bytes_to_hexstr(ptr noundef %12, ptr noundef %13, i64 noundef 6)
  %15 = getelementptr i8, ptr %14, i64 1
  store i8 0, ptr %14, align 1
  %16 = ptrtoint ptr %15 to i64
  %17 = ptrtoint ptr %1 to i64
  %18 = sub i64 %16, %17
  %19 = trunc i64 %18 to i32
  br label %20

20:                                               ; preds = %8, %5
  %.0 = phi i32 [ %2, %5 ], [ %19, %8 ]
  ret i32 %.0
}